target datalayout = "e-m:e-p270:32:32-p271:32:32-p272:64:64-i64:64-i128:128-f80:128-n8:16:32:64-S128"
target triple = "x86_64-pc-linux-gnu"

; Function Attrs: mustprogress uwtable
define i32 @fastlz_compress(ptr noundef %0, i32 noundef %1, ptr noundef %2) #0 {
  %4 = alloca i32, align 4
  %5 = alloca ptr, align 8
  %6 = alloca i32, align 4
  %7 = alloca ptr, align 8
  store ptr %0, ptr %5, align 8, !tbaa !6
  store i32 %1, ptr %6, align 4, !tbaa !10
  store ptr %2, ptr %7, align 8, !tbaa !6
  %8 = load i32, ptr %6, align 4, !tbaa !10
  %9 = icmp slt i32 %8, 65536
  br i1 %9, label %10, label %15

10:                                               ; preds = %3
  %11 = load ptr, ptr %5, align 8, !tbaa !6
  %12 = load i32, ptr %6, align 4, !tbaa !10
  %13 = load ptr, ptr %7, align 8, !tbaa !6
  %14 = call noundef i32 @_ZL16fastlz1_compressPKviPv(ptr noundef %11, i32 noundef %12, ptr noundef %13)
  store i32 %14, ptr %4, align 4
  br label %20

15:                                               ; preds = %3
  %16 = load ptr, ptr %5, align 8, !tbaa !6
  %17 = load i32, ptr %6, align 4, !tbaa !10
  %18 = load ptr, ptr %7, align 8, !tbaa !6
  %19 = call noundef i32 @_ZL16fastlz2_compressPKviPv(ptr noundef %16, i32 noundef %17, ptr noundef %18)
  store i32 %19, ptr %4, align 4
  br label %20

20:                                               ; preds = %15, %10
  %21 = load i32, ptr %4, align 4
  ret i32 %21
}