; Function Attrs: mustprogress nofree norecurse nosync nounwind memory(readwrite, inaccessiblemem: none) uwtable
define noundef i32 @fastlz_compress(ptr noundef %0, i32 noundef %1, ptr noundef %2) local_unnamed_addr #0 {
  %4 = icmp slt i32 %1, 65536
  br i1 %4, label %5, label %7

5:                                                ; preds = %3
  %6 = tail call fastcc noundef i32 @_ZL16fastlz1_compressPKviPv(ptr noundef %0, i32 noundef %1, ptr noundef %2)
  br label %9

7:                                                ; preds = %3
  %8 = tail call fastcc noundef i32 @_ZL16fastlz2_compressPKviPv(ptr noundef %0, i32 noundef %1, ptr noundef %2)
  br label %9

9:                                                ; preds = %7, %5
  %.0 = phi i32 [ %6, %5 ], [ %8, %7 ]
  ret i32 %.0
}